; Function Attrs: nounwind uwtable
define void @Io_ReadPlaMarkIdentical(ptr noundef readonly captures(none) %0, i32 noundef %1, i32 noundef %2, ptr noundef captures(none) initializes((4, 8)) %3) local_unnamed_addr #0 {
  %5 = load i32, ptr %3, align 8, !tbaa !3
  %.not.i.i = icmp slt i32 %5, %1
  %6 = ashr i32 %1, 5
  %7 = and i32 %1, 31
  br i1 %.not.i.i, label %8, label %Vec_BitGrow.exit.i

8:                                                ; preds = %4
  %9 = icmp ne i32 %7, 0
  %10 = zext i1 %9 to i32
  %11 = add nsw i32 %6, %10
  %12 = getelementptr inbounds nuw i8, ptr %3, i64 8
  %13 = load ptr, ptr %12, align 8, !tbaa !10
  %.not11.i.i = icmp eq ptr %13, null
  %14 = sext i32 %11 to i64
  %15 = shl nsw i64 %14, 2
  br i1 %.not11.i.i, label %18, label %16

16:                                               ; preds = %8
  %17 = tail call ptr @realloc(ptr noundef nonnull %13, i64 noundef %15) #14
  br label %20

18:                                               ; preds = %8
  %19 = tail call noalias ptr @malloc(i64 noundef %15) #15
  br label %20

20:                                               ; preds = %18, %16
  %21 = phi ptr [ %17, %16 ], [ %19, %18 ]
  store ptr %21, ptr %12, align 8, !tbaa !10
  %22 = shl nsw i32 %11, 5
  store i32 %22, ptr %3, align 8, !tbaa !3
  br label %Vec_BitGrow.exit.i

Vec_BitGrow.exit.i:                               ; preds = %4, %20
  %23 = icmp ne i32 %7, 0
  %24 = zext i1 %23 to i32
  %25 = add nsw i32 %6, %24
  %26 = icmp sgt i32 %25, 0
  br i1 %26, label %.lr.ph.i, label %Vec_BitFill.exit

.lr.ph.i:                                         ; preds = %Vec_BitGrow.exit.i
  %27 = getelementptr inbounds nuw i8, ptr %3, i64 8
  %28 = load ptr, ptr %27, align 8, !tbaa !10
  %29 = zext nneg i32 %25 to i64
  %30 = shl nuw nsw i64 %29, 2
  tail call void @llvm.memset.p0.i64(ptr align 4 %28, i8 0, i64 %30, i1 false), !tbaa !11
  br label %Vec_BitFill.exit

Vec_BitFill.exit:                                 ; preds = %Vec_BitGrow.exit.i, %.lr.ph.i
  %31 = shl nsw i32 %25, 5
  %32 = getelementptr inbounds nuw i8, ptr %3, i64 4
  store i32 %31, ptr %32, align 4, !tbaa !12
  %33 = icmp sgt i32 %1, 0
  br i1 %33, label %.lr.ph33, label %._crit_edge

.lr.ph33:                                         ; preds = %Vec_BitFill.exit
  %34 = getelementptr i8, ptr %3, i64 8
  %.val = load ptr, ptr %34, align 8, !tbaa !10
  %35 = icmp sgt i32 %2, 0
  %wide.trip.count.i = zext nneg i32 %2 to i64
  br i1 %35, label %.lr.ph33.split.us.preheader, label %.lr.ph33.split

.lr.ph33.split.us.preheader:                      ; preds = %.lr.ph33
  %36 = zext nneg i32 %1 to i64
  %wide.trip.count44 = zext nneg i32 %1 to i64
  br label %.lr.ph33.split.us

.lr.ph33.split.us:                                ; preds = %.lr.ph33.split.us.preheader, %.loopexit28.us
  %indvars.iv40 = phi i64 [ 0, %.lr.ph33.split.us.preheader ], [ %45, %.loopexit28.us ]
  %indvars.iv = phi i64 [ 1, %.lr.ph33.split.us.preheader ], [ %indvars.iv.next, %.loopexit28.us ]
  %37 = trunc nuw nsw i64 %indvars.iv40 to i32
  %38 = lshr i64 %indvars.iv40, 5
  %39 = and i64 %38, 134217727
  %40 = getelementptr inbounds nuw i32, ptr %.val, i64 %39
  %41 = load i32, ptr %40, align 4, !tbaa !11
  %42 = and i32 %37, 31
  %43 = shl nuw i32 1, %42
  %44 = and i32 %41, %43
  %.not.us = icmp eq i32 %44, 0
  %45 = add nuw nsw i64 %indvars.iv40, 1
  %46 = icmp samesign ult i64 %45, %36
  %or.cond47 = select i1 %.not.us, i1 %46, i1 false
  br i1 %or.cond47, label %.lr.ph.us, label %.loopexit28.us

.loopexit28.us:                                   ; preds = %Abc_TtEqual.exit.us.us, %.lr.ph33.split.us
  %indvars.iv.next = add nuw nsw i64 %indvars.iv, 1
  %exitcond45.not = icmp eq i64 %45, %wide.trip.count44
  br i1 %exitcond45.not, label %._crit_edge, label %.lr.ph33.split.us, !llvm.loop !13

.lr.ph.us:                                        ; preds = %.lr.ph33.split.us
  %47 = getelementptr inbounds nuw ptr, ptr %0, i64 %indvars.iv40
  br label %48

48:                                               ; preds = %Abc_TtEqual.exit.us.us, %.lr.ph.us
  %indvars.iv36 = phi i64 [ %indvars.iv.next37, %Abc_TtEqual.exit.us.us ], [ %indvars.iv, %.lr.ph.us ]
  %49 = trunc nuw nsw i64 %indvars.iv36 to i32
  %50 = lshr i64 %indvars.iv36, 5
  %51 = and i64 %50, 134217727
  %52 = getelementptr inbounds nuw i32, ptr %.val, i64 %51
  %53 = load i32, ptr %52, align 4, !tbaa !11
  %54 = and i32 %49, 31
  %55 = shl nuw i32 1, %54
  %56 = and i32 %53, %55
  %.not21.us.us = icmp eq i32 %56, 0
  br i1 %.not21.us.us, label %.lr.ph.preheader.i.us.us, label %Abc_TtEqual.exit.us.us

.lr.ph.preheader.i.us.us:                         ; preds = %48
  %57 = load ptr, ptr %47, align 8, !tbaa !15
  %58 = getelementptr inbounds nuw ptr, ptr %0, i64 %indvars.iv36
  %59 = load ptr, ptr %58, align 8, !tbaa !15
  br label %.lr.ph.i25.us.us

.lr.ph.i25.us.us:                                 ; preds = %64, %.lr.ph.preheader.i.us.us
  %indvars.iv.i.us.us = phi i64 [ 0, %.lr.ph.preheader.i.us.us ], [ %indvars.iv.next.i.us.us, %64 ]
  %60 = getelementptr inbounds nuw i64, ptr %57, i64 %indvars.iv.i.us.us
  %61 = load i64, ptr %60, align 8, !tbaa !17
  %62 = getelementptr inbounds nuw i64, ptr %59, i64 %indvars.iv.i.us.us
  %63 = load i64, ptr %62, align 8, !tbaa !17
  %.not.i.us.us = icmp eq i64 %61, %63
  br i1 %.not.i.us.us, label %64, label %Abc_TtEqual.exit.us.us

64:                                               ; preds = %.lr.ph.i25.us.us
  %indvars.iv.next.i.us.us = add nuw nsw i64 %indvars.iv.i.us.us, 1
  %exitcond.not.i.us.us = icmp eq i64 %indvars.iv.next.i.us.us, %wide.trip.count.i
  br i1 %exitcond.not.i.us.us, label %.loopexit.us.us, label %.lr.ph.i25.us.us, !llvm.loop !19

Abc_TtEqual.exit.us.us:                           ; preds = %.lr.ph.i25.us.us, %.loopexit.us.us, %48
  %indvars.iv.next37 = add nuw nsw i64 %indvars.iv36, 1
  %exitcond39.not = icmp eq i64 %indvars.iv.next37, %wide.trip.count44
  br i1 %exitcond39.not, label %.loopexit28.us, label %48, !llvm.loop !20

.loopexit.us.us:                                  ; preds = %64
  %65 = or i32 %53, %55
  store i32 %65, ptr %52, align 4, !tbaa !11
  br label %Abc_TtEqual.exit.us.us

.lr.ph33.split:                                   ; preds = %.lr.ph33, %.loopexit28
  %.01931 = phi i32 [ %.029, %.loopexit28 ], [ 0, %.lr.ph33 ]
  %66 = lshr i32 %.01931, 5
  %67 = zext nneg i32 %66 to i64
  %68 = getelementptr inbounds nuw i32, ptr %.val, i64 %67
  %69 = load i32, ptr %68, align 4, !tbaa !11
  %70 = and i32 %.01931, 31
  %71 = shl nuw i32 1, %70
  %72 = and i32 %69, %71
  %.not = icmp eq i32 %72, 0
  %.029 = add nuw nsw i32 %.01931, 1
  %73 = icmp slt i32 %.029, %1
  %or.cond = select i1 %.not, i1 %73, i1 false
  br i1 %or.cond, label %.lr.ph, label %.loopexit28

.lr.ph:                                           ; preds = %.lr.ph33.split, %Abc_TtEqual.exit
  %.030 = phi i32 [ %.0, %Abc_TtEqual.exit ], [ %.029, %.lr.ph33.split ]
  %74 = lshr i32 %.030, 5
  %75 = zext nneg i32 %74 to i64
  %76 = getelementptr inbounds nuw i32, ptr %.val, i64 %75
  %77 = load i32, ptr %76, align 4, !tbaa !11
  %78 = and i32 %.030, 31
  %79 = shl nuw i32 1, %78
  %80 = and i32 %77, %79
  %.not21 = icmp eq i32 %80, 0
  br i1 %.not21, label %81, label %Abc_TtEqual.exit

81:                                               ; preds = %.lr.ph
  %82 = or i32 %77, %79
  store i32 %82, ptr %76, align 4, !tbaa !11
  br label %Abc_TtEqual.exit

Abc_TtEqual.exit:                                 ; preds = %.lr.ph, %81
  %.0 = add nuw nsw i32 %.030, 1
  %exitcond.not = icmp eq i32 %.0, %1
  br i1 %exitcond.not, label %.loopexit28, label %.lr.ph, !llvm.loop !20

.loopexit28:                                      ; preds = %Abc_TtEqual.exit, %.lr.ph33.split
  %exitcond35.not = icmp eq i32 %.029, %1
  br i1 %exitcond35.not, label %._crit_edge, label %.lr.ph33.split, !llvm.loop !13

._crit_edge:                                      ; preds = %.loopexit28, %.loopexit28.us, %Vec_BitFill.exit
  ret void
}